; Function Attrs: nounwind uwtable
define ptr @l___private_Lean_Meta_Tactic_Grind_Arith_CommRing_Poly_0__Lean_Grind_CommRing_Mon_lcm_match__3_splitter___rarg(ptr noundef %0, ptr noundef %1, ptr noundef %2, ptr noundef %3, ptr noundef %4) #1 {
  %6 = ptrtoint ptr %0 to i64
  %7 = and i64 %6, 1
  %.not.i51 = icmp eq i64 %7, 0
  br i1 %.not.i51, label %11, label %8

8:                                                ; preds = %5
  %9 = lshr i64 %6, 1
  %10 = trunc i64 %9 to i32
  br label %lean_obj_tag.exit

11:                                               ; preds = %5
  %12 = getelementptr i8, ptr %0, i64 4
  %.val.i = load i32, ptr %12, align 4
  %13 = lshr i32 %.val.i, 24
  br label %lean_obj_tag.exit

lean_obj_tag.exit:                                ; preds = %8, %11
  %.0.i = phi i32 [ %10, %8 ], [ %13, %11 ]
  %14 = icmp eq i32 %.0.i, 0
  br i1 %14, label %15, label %35

15:                                               ; preds = %lean_obj_tag.exit
  %16 = ptrtoint ptr %4 to i64
  %17 = and i64 %16, 1
  %.not75 = icmp eq i64 %17, 0
  br i1 %.not75, label %18, label %lean_dec.exit38

18:                                               ; preds = %15
  %19 = load i32, ptr %4, align 4, !tbaa !10
  %20 = icmp sgt i32 %19, 1
  br i1 %20, label %21, label %23, !prof !5

21:                                               ; preds = %18
  %22 = add nsw i32 %19, -1
  store i32 %22, ptr %4, align 4, !tbaa !10
  br label %lean_dec.exit38

23:                                               ; preds = %18
  %.not.i = icmp eq i32 %19, 0
  br i1 %.not.i, label %lean_dec.exit38, label %24

24:                                               ; preds = %23
  tail call void @lean_dec_ref_cold(ptr noundef nonnull %4) #6
  br label %lean_dec.exit38

lean_dec.exit38:                                  ; preds = %24, %23, %21, %15
  %25 = ptrtoint ptr %3 to i64
  %26 = and i64 %25, 1
  %.not76 = icmp eq i64 %26, 0
  br i1 %.not76, label %27, label %lean_dec.exit37

27:                                               ; preds = %lean_dec.exit38
  %28 = load i32, ptr %3, align 4, !tbaa !10
  %29 = icmp sgt i32 %28, 1
  br i1 %29, label %30, label %32, !prof !5

30:                                               ; preds = %27
  %31 = add nsw i32 %28, -1
  store i32 %31, ptr %3, align 4, !tbaa !10
  br label %lean_dec.exit37

32:                                               ; preds = %27
  %.not.i39 = icmp eq i32 %28, 0
  br i1 %.not.i39, label %lean_dec.exit37, label %33

33:                                               ; preds = %32
  tail call void @lean_dec_ref_cold(ptr noundef nonnull %3) #6
  br label %lean_dec.exit37

lean_dec.exit37:                                  ; preds = %33, %32, %30, %lean_dec.exit38
  %34 = tail call ptr @lean_apply_1(ptr noundef %2, ptr noundef %1) #6
  br label %130

35:                                               ; preds = %lean_obj_tag.exit
  %36 = ptrtoint ptr %2 to i64
  %37 = and i64 %36, 1
  %.not = icmp eq i64 %37, 0
  br i1 %.not, label %38, label %lean_dec.exit36

38:                                               ; preds = %35
  %39 = load i32, ptr %2, align 4, !tbaa !10
  %40 = icmp sgt i32 %39, 1
  br i1 %40, label %41, label %43, !prof !5

41:                                               ; preds = %38
  %42 = add nsw i32 %39, -1
  store i32 %42, ptr %2, align 4, !tbaa !10
  br label %lean_dec.exit36

43:                                               ; preds = %38
  %.not.i41 = icmp eq i32 %39, 0
  br i1 %.not.i41, label %lean_dec.exit36, label %44

44:                                               ; preds = %43
  tail call void @lean_dec_ref_cold(ptr noundef nonnull %2) #6
  br label %lean_dec.exit36

lean_dec.exit36:                                  ; preds = %44, %43, %41, %35
  %45 = ptrtoint ptr %1 to i64
  %46 = and i64 %45, 1
  %.not.i52 = icmp eq i64 %46, 0
  br i1 %.not.i52, label %50, label %47

47:                                               ; preds = %lean_dec.exit36
  %48 = lshr i64 %45, 1
  %49 = trunc i64 %48 to i32
  br label %lean_obj_tag.exit55

50:                                               ; preds = %lean_dec.exit36
  %51 = getelementptr i8, ptr %1, i64 4
  %.val.i54 = load i32, ptr %51, align 4
  %52 = lshr i32 %.val.i54, 24
  br label %lean_obj_tag.exit55

lean_obj_tag.exit55:                              ; preds = %47, %50
  %.0.i53 = phi i32 [ %49, %47 ], [ %52, %50 ]
  %53 = icmp eq i32 %.0.i53, 0
  br i1 %53, label %54, label %65

54:                                               ; preds = %lean_obj_tag.exit55
  %55 = ptrtoint ptr %4 to i64
  %56 = and i64 %55, 1
  %.not74 = icmp eq i64 %56, 0
  br i1 %.not74, label %57, label %lean_dec.exit35

57:                                               ; preds = %54
  %58 = load i32, ptr %4, align 4, !tbaa !10
  %59 = icmp sgt i32 %58, 1
  br i1 %59, label %60, label %62, !prof !5

60:                                               ; preds = %57
  %61 = add nsw i32 %58, -1
  store i32 %61, ptr %4, align 4, !tbaa !10
  br label %lean_dec.exit35

62:                                               ; preds = %57
  %.not.i43 = icmp eq i32 %58, 0
  br i1 %.not.i43, label %lean_dec.exit35, label %63

63:                                               ; preds = %62
  tail call void @lean_dec_ref_cold(ptr noundef nonnull %4) #6
  br label %lean_dec.exit35

lean_dec.exit35:                                  ; preds = %63, %62, %60, %54
  %64 = tail call ptr @lean_apply_2(ptr noundef %3, ptr noundef %0, ptr noundef nonnull inttoptr (i64 1 to ptr)) #6
  br label %130

65:                                               ; preds = %lean_obj_tag.exit55
  %66 = ptrtoint ptr %3 to i64
  %67 = and i64 %66, 1
  %.not67 = icmp eq i64 %67, 0
  br i1 %.not67, label %68, label %lean_dec.exit34

68:                                               ; preds = %65
  %69 = load i32, ptr %3, align 4, !tbaa !10
  %70 = icmp sgt i32 %69, 1
  br i1 %70, label %71, label %73, !prof !5

71:                                               ; preds = %68
  %72 = add nsw i32 %69, -1
  store i32 %72, ptr %3, align 4, !tbaa !10
  br label %lean_dec.exit34

73:                                               ; preds = %68
  %.not.i45 = icmp eq i32 %69, 0
  br i1 %.not.i45, label %lean_dec.exit34, label %74

74:                                               ; preds = %73
  tail call void @lean_dec_ref_cold(ptr noundef nonnull %3) #6
  br label %lean_dec.exit34

lean_dec.exit34:                                  ; preds = %74, %73, %71, %65
  %75 = getelementptr inbounds nuw i8, ptr %0, i64 8
  %76 = load ptr, ptr %75, align 8, !tbaa !6
  %77 = ptrtoint ptr %76 to i64
  %78 = and i64 %77, 1
  %.not68 = icmp eq i64 %78, 0
  br i1 %.not68, label %79, label %lean_inc.exit32

79:                                               ; preds = %lean_dec.exit34
  %.val.i56 = load i32, ptr %76, align 4, !tbaa !10
  %80 = icmp sgt i32 %.val.i56, 0
  br i1 %80, label %81, label %83, !prof !5

81:                                               ; preds = %79
  %82 = add nuw i32 %.val.i56, 1
  store i32 %82, ptr %76, align 4, !tbaa !10
  br label %lean_inc.exit32

83:                                               ; preds = %79
  %.not.i57 = icmp eq i32 %.val.i56, 0
  br i1 %.not.i57, label %lean_inc.exit32, label %84

84:                                               ; preds = %83
  tail call void @lean_inc_ref_cold(ptr noundef nonnull %76) #6
  br label %lean_inc.exit32

lean_inc.exit32:                                  ; preds = %84, %83, %81, %lean_dec.exit34
  %85 = getelementptr inbounds nuw i8, ptr %0, i64 16
  %86 = load ptr, ptr %85, align 8, !tbaa !6
  %87 = ptrtoint ptr %86 to i64
  %88 = and i64 %87, 1
  %.not69 = icmp eq i64 %88, 0
  br i1 %.not69, label %89, label %lean_inc.exit31

89:                                               ; preds = %lean_inc.exit32
  %.val.i58 = load i32, ptr %86, align 4, !tbaa !10
  %90 = icmp sgt i32 %.val.i58, 0
  br i1 %90, label %91, label %93, !prof !5

91:                                               ; preds = %89
  %92 = add nuw i32 %.val.i58, 1
  store i32 %92, ptr %86, align 4, !tbaa !10
  br label %lean_inc.exit31

93:                                               ; preds = %89
  %.not.i59 = icmp eq i32 %.val.i58, 0
  br i1 %.not.i59, label %lean_inc.exit31, label %94

94:                                               ; preds = %93
  tail call void @lean_inc_ref_cold(ptr noundef nonnull %86) #6
  br label %lean_inc.exit31

lean_inc.exit31:                                  ; preds = %94, %93, %91, %lean_inc.exit32
  br i1 %.not.i51, label %95, label %lean_dec.exit33

95:                                               ; preds = %lean_inc.exit31
  %96 = load i32, ptr %0, align 4, !tbaa !10
  %97 = icmp sgt i32 %96, 1
  br i1 %97, label %98, label %100, !prof !5

98:                                               ; preds = %95
  %99 = add nsw i32 %96, -1
  store i32 %99, ptr %0, align 4, !tbaa !10
  br label %lean_dec.exit33

100:                                              ; preds = %95
  %.not.i47 = icmp eq i32 %96, 0
  br i1 %.not.i47, label %lean_dec.exit33, label %101

101:                                              ; preds = %100
  tail call void @lean_dec_ref_cold(ptr noundef nonnull %0) #6
  br label %lean_dec.exit33

lean_dec.exit33:                                  ; preds = %101, %100, %98, %lean_inc.exit31
  %102 = getelementptr inbounds nuw i8, ptr %1, i64 8
  %103 = load ptr, ptr %102, align 8, !tbaa !6
  %104 = ptrtoint ptr %103 to i64
  %105 = and i64 %104, 1
  %.not71 = icmp eq i64 %105, 0
  br i1 %.not71, label %106, label %lean_inc.exit30

106:                                              ; preds = %lean_dec.exit33
  %.val.i61 = load i32, ptr %103, align 4, !tbaa !10
  %107 = icmp sgt i32 %.val.i61, 0
  br i1 %107, label %108, label %110, !prof !5

108:                                              ; preds = %106
  %109 = add nuw i32 %.val.i61, 1
  store i32 %109, ptr %103, align 4, !tbaa !10
  br label %lean_inc.exit30

110:                                              ; preds = %106
  %.not.i62 = icmp eq i32 %.val.i61, 0
  br i1 %.not.i62, label %lean_inc.exit30, label %111

111:                                              ; preds = %110
  tail call void @lean_inc_ref_cold(ptr noundef nonnull %103) #6
  br label %lean_inc.exit30

lean_inc.exit30:                                  ; preds = %111, %110, %108, %lean_dec.exit33
  %112 = getelementptr inbounds nuw i8, ptr %1, i64 16
  %113 = load ptr, ptr %112, align 8, !tbaa !6
  %114 = ptrtoint ptr %113 to i64
  %115 = and i64 %114, 1
  %.not72 = icmp eq i64 %115, 0
  br i1 %.not72, label %116, label %lean_inc.exit

116:                                              ; preds = %lean_inc.exit30
  %.val.i64 = load i32, ptr %113, align 4, !tbaa !10
  %117 = icmp sgt i32 %.val.i64, 0
  br i1 %117, label %118, label %120, !prof !5

118:                                              ; preds = %116
  %119 = add nuw i32 %.val.i64, 1
  store i32 %119, ptr %113, align 4, !tbaa !10
  br label %lean_inc.exit

120:                                              ; preds = %116
  %.not.i65 = icmp eq i32 %.val.i64, 0
  br i1 %.not.i65, label %lean_inc.exit, label %121

121:                                              ; preds = %120
  tail call void @lean_inc_ref_cold(ptr noundef nonnull %113) #6
  br label %lean_inc.exit

lean_inc.exit:                                    ; preds = %121, %120, %118, %lean_inc.exit30
  br i1 %.not.i52, label %122, label %lean_dec.exit

122:                                              ; preds = %lean_inc.exit
  %123 = load i32, ptr %1, align 4, !tbaa !10
  %124 = icmp sgt i32 %123, 1
  br i1 %124, label %125, label %127, !prof !5

125:                                              ; preds = %122
  %126 = add nsw i32 %123, -1
  store i32 %126, ptr %1, align 4, !tbaa !10
  br label %lean_dec.exit

127:                                              ; preds = %122
  %.not.i49 = icmp eq i32 %123, 0
  br i1 %.not.i49, label %lean_dec.exit, label %128

128:                                              ; preds = %127
  tail call void @lean_dec_ref_cold(ptr noundef nonnull %1) #6
  br label %lean_dec.exit

lean_dec.exit:                                    ; preds = %128, %127, %125, %lean_inc.exit
  %129 = tail call ptr @lean_apply_4(ptr noundef %4, ptr noundef %76, ptr noundef %86, ptr noundef %103, ptr noundef %113) #6
  br label %130

130:                                              ; preds = %lean_dec.exit, %lean_dec.exit35, %lean_dec.exit37
  %.0 = phi ptr [ %34, %lean_dec.exit37 ], [ %64, %lean_dec.exit35 ], [ %129, %lean_dec.exit ]
  ret ptr %.0
}